target datalayout = "e-m:e-p270:32:32-p271:32:32-p272:64:64-i64:64-i128:128-f80:128-n8:16:32:64-S128"
target triple = "x86_64-pc-linux-gnu"

%struct.SwrContext = type { ptr, i32, ptr, i32, i32, i32, %struct.AVChannelLayout, %struct.AVChannelLayout, %struct.AVChannelLayout, i32, i32, i32, float, float, float, float, float, i32, ptr, i32, %struct.AVChannelLayout, %struct.AVChannelLayout, %struct.AVChannelLayout, i32, i32, %struct.DitherContext, i32, i32, i32, i32, double, i32, double, double, i32, float, float, float, float, float, i64, i32, i32, i32, %struct.AudioData, %struct.AudioData, %struct.AudioData, %struct.AudioData, %struct.AudioData, %struct.AudioData, %struct.AudioData, %struct.AudioData, i32, i32, i32, i32, i64, i64, i32, double, ptr, ptr, ptr, ptr, ptr, [64 x [64 x double]], [64 x [64 x float]], ptr, ptr, ptr, ptr, [64 x [64 x i32]], [64 x [65 x i8]], ptr, ptr, ptr, ptr, ptr }
%struct.AVChannelLayout = type { i32, i32, %union.anon, ptr }
%union.anon = type { i64 }
%struct.DitherContext = type { i32, i32, float, float, i32, float, float, i32, [20 x float], [64 x [40 x float]], %struct.AudioData, %struct.AudioData, i32 }
%struct.AudioData = type { [64 x ptr], ptr, i32, i32, i32, i32, i32 }

@.str.34 = private unnamed_addr constant [36 x i8] c"adding %d audio samples of silence\0A\00", align 1

; Function Attrs: nounwind uwtable
define internal void @reversefill_audiodata(ptr noundef %0, ptr noundef %1) #0 {
  %3 = alloca ptr, align 8
  %4 = alloca ptr, align 8
  %5 = alloca i32, align 4
  store ptr %0, ptr %3, align 8, !tbaa !96
  store ptr %1, ptr %4, align 8, !tbaa !106
  call void @llvm.lifetime.start.p0(i64 4, ptr %5) #9
  %6 = load ptr, ptr %3, align 8, !tbaa !96
  %7 = getelementptr inbounds nuw %struct.AudioData, ptr %6, i32 0, i32 5
  %8 = load i32, ptr %7, align 4, !tbaa !100
  %9 = icmp ne i32 %8, 0
  br i1 %9, label %10, label %32

10:                                               ; preds = %2
  store i32 0, ptr %5, align 4, !tbaa !31
  br label %11

11:                                               ; preds = %28, %10
  %12 = load i32, ptr %5, align 4, !tbaa !31
  %13 = load ptr, ptr %3, align 8, !tbaa !96
  %14 = getelementptr inbounds nuw %struct.AudioData, ptr %13, i32 0, i32 2
  %15 = load i32, ptr %14, align 8, !tbaa !101
  %16 = icmp slt i32 %12, %15
  br i1 %16, label %17, label %31

17:                                               ; preds = %11
  %18 = load ptr, ptr %3, align 8, !tbaa !96
  %19 = getelementptr inbounds nuw %struct.AudioData, ptr %18, i32 0, i32 0
  %20 = load i32, ptr %5, align 4, !tbaa !31
  %21 = sext i32 %20 to i64
  %22 = getelementptr inbounds [64 x ptr], ptr %19, i64 0, i64 %21
  %23 = load ptr, ptr %22, align 8, !tbaa !86
  %24 = load ptr, ptr %4, align 8, !tbaa !106
  %25 = load i32, ptr %5, align 4, !tbaa !31
  %26 = sext i32 %25 to i64
  %27 = getelementptr inbounds ptr, ptr %24, i64 %26
  store ptr %23, ptr %27, align 8, !tbaa !86
  br label %28

28:                                               ; preds = %17
  %29 = load i32, ptr %5, align 4, !tbaa !31
  %30 = add nsw i32 %29, 1
  store i32 %30, ptr %5, align 4, !tbaa !31
  br label %11, !llvm.loop !112

31:                                               ; preds = %11
  br label %39

32:                                               ; preds = %2
  %33 = load ptr, ptr %3, align 8, !tbaa !96
  %34 = getelementptr inbounds nuw %struct.AudioData, ptr %33, i32 0, i32 0
  %35 = getelementptr inbounds [64 x ptr], ptr %34, i64 0, i64 0
  %36 = load ptr, ptr %35, align 8, !tbaa !86
  %37 = load ptr, ptr %4, align 8, !tbaa !106
  %38 = getelementptr inbounds ptr, ptr %37, i64 0
  store ptr %36, ptr %38, align 8, !tbaa !86
  br label %39

39:                                               ; preds = %32, %31
  call void @llvm.lifetime.end.p0(i64 4, ptr %5) #9
  ret void
}

; Function Attrs: nounwind uwtable
define i32 @swr_inject_silence(ptr noundef %0, i32 noundef %1) #0 {
  %3 = alloca i32, align 4
  %4 = alloca ptr, align 8
  %5 = alloca i32, align 4
  %6 = alloca i32, align 4
  %7 = alloca i32, align 4
  %8 = alloca [64 x ptr], align 16
  %9 = alloca i32, align 4
  store ptr %0, ptr %4, align 8, !tbaa !4
  store i32 %1, ptr %5, align 4, !tbaa !31
  call void @llvm.lifetime.start.p0(i64 4, ptr %6) #9
  call void @llvm.lifetime.start.p0(i64 4, ptr %7) #9
  call void @llvm.lifetime.start.p0(i64 512, ptr %8) #9
  %10 = load i32, ptr %5, align 4, !tbaa !31
  %11 = icmp sle i32 %10, 0
  br i1 %11, label %12, label %13

12:                                               ; preds = %2
  store i32 0, ptr %3, align 4
  store i32 1, ptr %9, align 4
  br label %110

13:                                               ; preds = %2
  br label %14

14:                                               ; preds = %23, %13
  %15 = load i32, ptr %5, align 4, !tbaa !31
  %16 = icmp sgt i32 %15, 16384
  br i1 %16, label %17, label %26

17:                                               ; preds = %14
  %18 = load ptr, ptr %4, align 8, !tbaa !4
  %19 = call i32 @swr_inject_silence(ptr noundef %18, i32 noundef 16384)
  store i32 %19, ptr %6, align 4, !tbaa !31
  %20 = icmp slt i32 %19, 0
  br i1 %20, label %21, label %23

21:                                               ; preds = %17
  %22 = load i32, ptr %6, align 4, !tbaa !31
  store i32 %22, ptr %3, align 4
  store i32 1, ptr %9, align 4
  br label %110

23:                                               ; preds = %17
  %24 = load i32, ptr %5, align 4, !tbaa !31
  %25 = sub nsw i32 %24, 16384
  store i32 %25, ptr %5, align 4, !tbaa !31
  br label %14, !llvm.loop !132

26:                                               ; preds = %14
  %27 = load ptr, ptr %4, align 8, !tbaa !4
  %28 = getelementptr inbounds nuw %struct.SwrContext, ptr %27, i32 0, i32 50
  %29 = load i32, ptr %5, align 4, !tbaa !31
  %30 = call i32 @swri_realloc_audio(ptr noundef %28, i32 noundef %29)
  store i32 %30, ptr %6, align 4, !tbaa !31
  %31 = icmp slt i32 %30, 0
  br i1 %31, label %32, label %34

32:                                               ; preds = %26
  %33 = load i32, ptr %6, align 4, !tbaa !31
  store i32 %33, ptr %3, align 4
  store i32 1, ptr %9, align 4
  br label %110

34:                                               ; preds = %26
  %35 = load ptr, ptr %4, align 8, !tbaa !4
  %36 = getelementptr inbounds nuw %struct.SwrContext, ptr %35, i32 0, i32 50
  %37 = getelementptr inbounds nuw %struct.AudioData, ptr %36, i32 0, i32 5
  %38 = load i32, ptr %37, align 4, !tbaa !133
  %39 = icmp ne i32 %38, 0
  br i1 %39, label %40, label %74

40:                                               ; preds = %34
  store i32 0, ptr %7, align 4, !tbaa !31
  br label %41

41:                                               ; preds = %70, %40
  %42 = load i32, ptr %7, align 4, !tbaa !31
  %43 = load ptr, ptr %4, align 8, !tbaa !4
  %44 = getelementptr inbounds nuw %struct.SwrContext, ptr %43, i32 0, i32 50
  %45 = getelementptr inbounds nuw %struct.AudioData, ptr %44, i32 0, i32 2
  %46 = load i32, ptr %45, align 8, !tbaa !134
  %47 = icmp slt i32 %42, %46
  br i1 %47, label %48, label %73

48:                                               ; preds = %41
  %49 = load ptr, ptr %4, align 8, !tbaa !4
  %50 = getelementptr inbounds nuw %struct.SwrContext, ptr %49, i32 0, i32 50
  %51 = getelementptr inbounds nuw %struct.AudioData, ptr %50, i32 0, i32 0
  %52 = load i32, ptr %7, align 4, !tbaa !31
  %53 = sext i32 %52 to i64
  %54 = getelementptr inbounds [64 x ptr], ptr %51, i64 0, i64 %53
  %55 = load ptr, ptr %54, align 8, !tbaa !86
  %56 = load ptr, ptr %4, align 8, !tbaa !4
  %57 = getelementptr inbounds nuw %struct.SwrContext, ptr %56, i32 0, i32 50
  %58 = getelementptr inbounds nuw %struct.AudioData, ptr %57, i32 0, i32 3
  %59 = load i32, ptr %58, align 4, !tbaa !135
  %60 = icmp eq i32 %59, 1
  %61 = select i1 %60, i32 128, i32 0
  %62 = trunc i32 %61 to i8
  %63 = load i32, ptr %5, align 4, !tbaa !31
  %64 = load ptr, ptr %4, align 8, !tbaa !4
  %65 = getelementptr inbounds nuw %struct.SwrContext, ptr %64, i32 0, i32 50
  %66 = getelementptr inbounds nuw %struct.AudioData, ptr %65, i32 0, i32 3
  %67 = load i32, ptr %66, align 4, !tbaa !135
  %68 = mul nsw i32 %63, %67
  %69 = sext i32 %68 to i64
  call void @llvm.memset.p0.i64(ptr align 1 %55, i8 %62, i64 %69, i1 false)
  br label %70

70:                                               ; preds = %48
  %71 = load i32, ptr %7, align 4, !tbaa !31
  %72 = add nsw i32 %71, 1
  store i32 %72, ptr %7, align 4, !tbaa !31
  br label %41, !llvm.loop !136

73:                                               ; preds = %41
  br label %99

74:                                               ; preds = %34
  %75 = load ptr, ptr %4, align 8, !tbaa !4
  %76 = getelementptr inbounds nuw %struct.SwrContext, ptr %75, i32 0, i32 50
  %77 = getelementptr inbounds nuw %struct.AudioData, ptr %76, i32 0, i32 0
  %78 = getelementptr inbounds [64 x ptr], ptr %77, i64 0, i64 0
  %79 = load ptr, ptr %78, align 8, !tbaa !86
  %80 = load ptr, ptr %4, align 8, !tbaa !4
  %81 = getelementptr inbounds nuw %struct.SwrContext, ptr %80, i32 0, i32 50
  %82 = getelementptr inbounds nuw %struct.AudioData, ptr %81, i32 0, i32 3
  %83 = load i32, ptr %82, align 4, !tbaa !135
  %84 = icmp eq i32 %83, 1
  %85 = select i1 %84, i32 128, i32 0
  %86 = trunc i32 %85 to i8
  %87 = load i32, ptr %5, align 4, !tbaa !31
  %88 = load ptr, ptr %4, align 8, !tbaa !4
  %89 = getelementptr inbounds nuw %struct.SwrContext, ptr %88, i32 0, i32 50
  %90 = getelementptr inbounds nuw %struct.AudioData, ptr %89, i32 0, i32 3
  %91 = load i32, ptr %90, align 4, !tbaa !135
  %92 = mul nsw i32 %87, %91
  %93 = load ptr, ptr %4, align 8, !tbaa !4
  %94 = getelementptr inbounds nuw %struct.SwrContext, ptr %93, i32 0, i32 50
  %95 = getelementptr inbounds nuw %struct.AudioData, ptr %94, i32 0, i32 2
  %96 = load i32, ptr %95, align 8, !tbaa !134
  %97 = mul nsw i32 %92, %96
  %98 = sext i32 %97 to i64
  call void @llvm.memset.p0.i64(ptr align 1 %79, i8 %86, i64 %98, i1 false)
  br label %99

99:                                               ; preds = %74, %73
  %100 = load ptr, ptr %4, align 8, !tbaa !4
  %101 = getelementptr inbounds nuw %struct.SwrContext, ptr %100, i32 0, i32 50
  %102 = getelementptr inbounds [64 x ptr], ptr %8, i64 0, i64 0
  call void @reversefill_audiodata(ptr noundef %101, ptr noundef %102)
  %103 = load ptr, ptr %4, align 8, !tbaa !4
  %104 = load i32, ptr %5, align 4, !tbaa !31
  call void (ptr, i32, ptr, ...) @av_log(ptr noundef %103, i32 noundef 40, ptr noundef @.str.34, i32 noundef %104)
  %105 = load ptr, ptr %4, align 8, !tbaa !4
  %106 = getelementptr inbounds [64 x ptr], ptr %8, i64 0, i64 0
  %107 = load i32, ptr %5, align 4, !tbaa !31
  %108 = call i32 @swr_convert(ptr noundef %105, ptr noundef null, i32 noundef 0, ptr noundef %106, i32 noundef %107)
  store i32 %108, ptr %6, align 4, !tbaa !31
  %109 = load i32, ptr %6, align 4, !tbaa !31
  store i32 %109, ptr %3, align 4
  store i32 1, ptr %9, align 4
  br label %110

110:                                              ; preds = %99, %32, %21, %12
  call void @llvm.lifetime.end.p0(i64 512, ptr %8) #9
  call void @llvm.lifetime.end.p0(i64 4, ptr %7) #9
  call void @llvm.lifetime.end.p0(i64 4, ptr %6) #9
  %111 = load i32, ptr %3, align 4
  ret i32 %111
}