; Function Attrs: nounwind uwtable
define i32 @swr_inject_silence(ptr noundef %0, i32 noundef %1) local_unnamed_addr #1 {
  %3 = alloca [64 x ptr], align 16
  call void @llvm.lifetime.start.p0(i64 512, ptr nonnull %3) #12
  %4 = icmp slt i32 %1, 1
  br i1 %4, label %.loopexit34, label %.preheader33

.preheader33:                                     ; preds = %2
  %5 = icmp samesign ugt i32 %1, 16384
  br i1 %5, label %.lr.ph, label %._crit_edge

.lr.ph:                                           ; preds = %.preheader33, %8
  %.02836 = phi i32 [ %9, %8 ], [ %1, %.preheader33 ]
  %6 = tail call i32 @swr_inject_silence(ptr noundef %0, i32 noundef 16384)
  %7 = icmp slt i32 %6, 0
  br i1 %7, label %.loopexit34, label %8

8:                                                ; preds = %.lr.ph
  %9 = add nsw i32 %.02836, -16384
  %10 = icmp sgt i32 %.02836, 32768
  br i1 %10, label %.lr.ph, label %._crit_edge, !llvm.loop !121

._crit_edge:                                      ; preds = %8, %.preheader33
  %.028.lcssa = phi i32 [ %1, %.preheader33 ], [ %9, %8 ]
  %11 = getelementptr inbounds nuw i8, ptr %0, i64 15056
  %12 = tail call i32 @swri_realloc_audio(ptr noundef nonnull %11, i32 noundef %.028.lcssa)
  %13 = icmp slt i32 %12, 0
  br i1 %13, label %.loopexit34, label %14

14:                                               ; preds = %._crit_edge
  %15 = getelementptr inbounds nuw i8, ptr %0, i64 15588
  %16 = load i32, ptr %15, align 4, !tbaa !122
  %.not = icmp eq i32 %16, 0
  br i1 %.not, label %32, label %.preheader

.preheader:                                       ; preds = %14
  %17 = getelementptr inbounds nuw i8, ptr %0, i64 15576
  %18 = load i32, ptr %17, align 8, !tbaa !123
  %19 = icmp sgt i32 %18, 0
  br i1 %19, label %.lr.ph38, label %.loopexit

.lr.ph38:                                         ; preds = %.preheader
  %20 = getelementptr inbounds nuw i8, ptr %0, i64 15580
  br label %21

21:                                               ; preds = %.lr.ph38, %21
  %indvars.iv = phi i64 [ 0, %.lr.ph38 ], [ %indvars.iv.next, %21 ]
  %22 = getelementptr inbounds nuw [64 x ptr], ptr %11, i64 0, i64 %indvars.iv
  %23 = load ptr, ptr %22, align 8, !tbaa !79
  %24 = load i32, ptr %20, align 4, !tbaa !124
  %25 = icmp eq i32 %24, 1
  %26 = select i1 %25, i8 -128, i8 0
  %27 = mul nsw i32 %24, %.028.lcssa
  %28 = sext i32 %27 to i64
  tail call void @llvm.memset.p0.i64(ptr align 1 %23, i8 %26, i64 %28, i1 false)
  %indvars.iv.next = add nuw nsw i64 %indvars.iv, 1
  %29 = load i32, ptr %17, align 8, !tbaa !123
  %30 = sext i32 %29 to i64
  %31 = icmp slt i64 %indvars.iv.next, %30
  br i1 %31, label %21, label %.loopexit, !llvm.loop !125

32:                                               ; preds = %14
  %33 = load ptr, ptr %11, align 8, !tbaa !79
  %34 = getelementptr inbounds nuw i8, ptr %0, i64 15580
  %35 = load i32, ptr %34, align 4, !tbaa !124
  %36 = icmp eq i32 %35, 1
  %37 = select i1 %36, i8 -128, i8 0
  %38 = mul nsw i32 %35, %.028.lcssa
  %39 = getelementptr inbounds nuw i8, ptr %0, i64 15576
  %40 = load i32, ptr %39, align 8, !tbaa !123
  %41 = mul nsw i32 %38, %40
  %42 = sext i32 %41 to i64
  tail call void @llvm.memset.p0.i64(ptr align 1 %33, i8 %37, i64 %42, i1 false)
  br label %.loopexit

.loopexit:                                        ; preds = %21, %.preheader, %32
  %43 = load i32, ptr %15, align 4, !tbaa !94
  %.not.i = icmp eq i32 %43, 0
  br i1 %.not.i, label %48, label %.preheader.i

.preheader.i:                                     ; preds = %.loopexit
  %44 = getelementptr inbounds nuw i8, ptr %0, i64 15576
  %45 = load i32, ptr %44, align 8, !tbaa !92
  %46 = icmp sgt i32 %45, 0
  br i1 %46, label %.lr.ph.preheader.i, label %reversefill_audiodata.exit

.lr.ph.preheader.i:                               ; preds = %.preheader.i
  %wide.trip.count.i = zext nneg i32 %45 to i64
  %47 = shl nuw nsw i64 %wide.trip.count.i, 3
  call void @llvm.memcpy.p0.p0.i64(ptr nonnull align 16 %3, ptr nonnull align 8 %11, i64 %47, i1 false), !tbaa !79
  br label %reversefill_audiodata.exit

48:                                               ; preds = %.loopexit
  %49 = load ptr, ptr %11, align 8, !tbaa !79
  store ptr %49, ptr %3, align 16, !tbaa !79
  br label %reversefill_audiodata.exit

reversefill_audiodata.exit:                       ; preds = %.lr.ph.preheader.i, %.preheader.i, %48
  tail call void (ptr, i32, ptr, ...) @av_log(ptr noundef nonnull %0, i32 noundef 40, ptr noundef nonnull @.str.34, i32 noundef %.028.lcssa) #12
  %50 = call i32 @swr_convert(ptr noundef nonnull %0, ptr noundef null, i32 noundef 0, ptr noundef nonnull %3, i32 noundef %.028.lcssa)
  br label %.loopexit34

.loopexit34:                                      ; preds = %.lr.ph, %._crit_edge, %2, %reversefill_audiodata.exit
  %.029 = phi i32 [ %50, %reversefill_audiodata.exit ], [ 0, %2 ], [ %12, %._crit_edge ], [ %6, %.lr.ph ]
  call void @llvm.lifetime.end.p0(i64 512, ptr nonnull %3) #12
  ret i32 %.029
}